target datalayout = "e-m:e-p270:32:32-p271:32:32-p272:64:64-i64:64-i128:128-f80:128-n8:16:32:64-S128"
target triple = "x86_64-pc-linux-gnu"

%"struct.mold::ElfRel" = type { %"class.mold::Integer", i8, %"class.mold::Integer.0" }
%"class.mold::Integer" = type { [4 x i8] }
%"class.mold::Integer.0" = type { [3 x i8] }
%"class.mold::Integer.1" = type { [2 x i8] }

; Function Attrs: mustprogress nounwind
define linkonce_odr dso_local void @_ZN4mold7IntegerIjLb1ELi4EEC2EjQaaT0_eqT1_Li4E(ptr noundef nonnull align 1 dereferenceable(4) %0, i32 noundef %1) unnamed_addr #4 comdat align 2 {
  %3 = alloca ptr, align 8
  %4 = alloca i32, align 4
  store ptr %0, ptr %3, align 8, !tbaa !24
  store i32 %1, ptr %4, align 4, !tbaa !30
  %5 = load ptr, ptr %3, align 8
  %6 = getelementptr inbounds nuw %"class.mold::Integer", ptr %5, i32 0, i32 0
  %7 = load i32, ptr %4, align 4, !tbaa !30
  %8 = trunc i32 %7 to i8
  store i8 %8, ptr %6, align 1, !tbaa !21
  %9 = getelementptr inbounds i8, ptr %6, i64 1
  %10 = load i32, ptr %4, align 4, !tbaa !30
  %11 = lshr i32 %10, 8
  %12 = trunc i32 %11 to i8
  store i8 %12, ptr %9, align 1, !tbaa !21
  %13 = getelementptr inbounds i8, ptr %6, i64 2
  %14 = load i32, ptr %4, align 4, !tbaa !30
  %15 = lshr i32 %14, 16
  %16 = trunc i32 %15 to i8
  store i8 %16, ptr %13, align 1, !tbaa !21
  %17 = getelementptr inbounds i8, ptr %6, i64 3
  %18 = load i32, ptr %4, align 4, !tbaa !30
  %19 = lshr i32 %18, 24
  %20 = trunc i32 %19 to i8
  store i8 %20, ptr %17, align 1, !tbaa !21
  ret void
}

; Function Attrs: mustprogress nounwind
define linkonce_odr dso_local void @_ZN4mold7IntegerItLb1ELi2EEC2EtQaaT0_eqT1_Li2E(ptr noundef nonnull align 1 dereferenceable(2) %0, i16 noundef zeroext %1) unnamed_addr #4 comdat align 2 {
  %3 = alloca ptr, align 8
  %4 = alloca i16, align 2
  store ptr %0, ptr %3, align 8, !tbaa !22
  store i16 %1, ptr %4, align 2, !tbaa !28
  %5 = load ptr, ptr %3, align 8
  %6 = getelementptr inbounds nuw %"class.mold::Integer.1", ptr %5, i32 0, i32 0
  %7 = load i16, ptr %4, align 2, !tbaa !28
  %8 = trunc i16 %7 to i8
  store i8 %8, ptr %6, align 1, !tbaa !21
  %9 = getelementptr inbounds i8, ptr %6, i64 1
  %10 = load i16, ptr %4, align 2, !tbaa !28
  %11 = zext i16 %10 to i32
  %12 = ashr i32 %11, 8
  %13 = trunc i32 %12 to i8
  store i8 %13, ptr %9, align 1, !tbaa !21
  ret void
}

; Function Attrs: mustprogress nounwind
define linkonce_odr dso_local noundef nonnull align 1 dereferenceable(4) ptr @_ZN4mold7IntegerIjLb1ELi4EEaSEj(ptr noundef nonnull align 1 dereferenceable(4) %0, i32 noundef %1) #4 comdat align 2 {
  %3 = alloca ptr, align 8
  %4 = alloca i32, align 4
  store ptr %0, ptr %3, align 8, !tbaa !24
  store i32 %1, ptr %4, align 4, !tbaa !30
  %5 = load ptr, ptr %3, align 8
  %6 = load i32, ptr %4, align 4, !tbaa !30
  call void @_ZN4mold7IntegerIjLb1ELi4EEC2EjQaaT0_eqT1_Li4E(ptr noundef nonnull align 1 dereferenceable(4) %5, i32 noundef %6)
  ret ptr %5
}

; Function Attrs: mustprogress nounwind
define linkonce_odr dso_local noundef nonnull align 1 dereferenceable(2) ptr @_ZN4mold7IntegerItLb1ELi2EEaSEt(ptr noundef nonnull align 1 dereferenceable(2) %0, i16 noundef zeroext %1) #4 comdat align 2 {
  %3 = alloca ptr, align 8
  %4 = alloca i16, align 2
  store ptr %0, ptr %3, align 8, !tbaa !22
  store i16 %1, ptr %4, align 2, !tbaa !28
  %5 = load ptr, ptr %3, align 8
  %6 = load i16, ptr %4, align 2, !tbaa !28
  call void @_ZN4mold7IntegerItLb1ELi2EEC2EtQaaT0_eqT1_Li2E(ptr noundef nonnull align 1 dereferenceable(2) %5, i16 noundef zeroext %6)
  ret ptr %5
}

; Function Attrs: mustprogress nounwind
define dso_local void @_ZN4mold12write_addendINS_4I386EEEvPhlRKNS_6ElfRelIT_EE(ptr noundef %0, i64 noundef %1, ptr noundef nonnull align 1 dereferenceable(8) %2) #4 {
  %4 = alloca ptr, align 8
  %5 = alloca i64, align 8
  %6 = alloca ptr, align 8
  store ptr %0, ptr %4, align 8, !tbaa !13
  store i64 %1, ptr %5, align 8, !tbaa !26
  store ptr %2, ptr %6, align 8, !tbaa !15
  %7 = load ptr, ptr %6, align 8, !tbaa !15
  %8 = getelementptr inbounds nuw %"struct.mold::ElfRel", ptr %7, i32 0, i32 1
  %9 = load i8, ptr %8, align 1, !tbaa !17
  %10 = zext i8 %9 to i32
  switch i32 %10, label %25 [
    i32 0, label %26
    i32 22, label %11
    i32 23, label %11
    i32 20, label %15
    i32 21, label %15
    i32 1, label %20
    i32 2, label %20
    i32 3, label %20
    i32 43, label %20
    i32 4, label %20
    i32 9, label %20
    i32 10, label %20
    i32 19, label %20
    i32 16, label %20
    i32 17, label %20
    i32 15, label %20
    i32 18, label %20
    i32 32, label %20
    i32 38, label %20
    i32 39, label %20
  ]

11:                                               ; preds = %3, %3
  %12 = load i64, ptr %5, align 8, !tbaa !26
  %13 = trunc i64 %12 to i8
  %14 = load ptr, ptr %4, align 8, !tbaa !13
  store i8 %13, ptr %14, align 1, !tbaa !21
  br label %26

15:                                               ; preds = %3, %3
  %16 = load i64, ptr %5, align 8, !tbaa !26
  %17 = trunc i64 %16 to i16
  %18 = load ptr, ptr %4, align 8, !tbaa !13
  %19 = call noundef nonnull align 1 dereferenceable(2) ptr @_ZN4mold7IntegerItLb1ELi2EEaSEt(ptr noundef nonnull align 1 dereferenceable(2) %18, i16 noundef zeroext %17)
  br label %26

20:                                               ; preds = %3, %3, %3, %3, %3, %3, %3, %3, %3, %3, %3, %3, %3, %3, %3
  %21 = load i64, ptr %5, align 8, !tbaa !26
  %22 = trunc i64 %21 to i32
  %23 = load ptr, ptr %4, align 8, !tbaa !13
  %24 = call noundef nonnull align 1 dereferenceable(4) ptr @_ZN4mold7IntegerIjLb1ELi4EEaSEj(ptr noundef nonnull align 1 dereferenceable(4) %23, i32 noundef %22)
  br label %26

25:                                               ; preds = %3
  unreachable

26:                                               ; preds = %20, %3, %15, %11
  ret void
}