; Function Attrs: mustprogress nofree norecurse nosync nounwind willreturn memory(argmem: readwrite)
define dso_local void @_ZN4mold12write_addendINS_4I386EEEvPhlRKNS_6ElfRelIT_EE(ptr noundef writeonly captures(none) %0, i64 noundef %1, ptr noundef nonnull readonly align 1 captures(none) dereferenceable(8) %2) local_unnamed_addr #6 {
  %4 = getelementptr inbounds nuw i8, ptr %2, i64 4
  %5 = load i8, ptr %4, align 1, !tbaa !11
  switch i8 %5, label %24 [
    i8 0, label %25
    i8 22, label %6
    i8 23, label %6
    i8 20, label %8
    i8 21, label %8
    i8 1, label %13
    i8 2, label %13
    i8 3, label %13
    i8 43, label %13
    i8 4, label %13
    i8 9, label %13
    i8 10, label %13
    i8 19, label %13
    i8 16, label %13
    i8 17, label %13
    i8 15, label %13
    i8 18, label %13
    i8 32, label %13
    i8 38, label %13
    i8 39, label %13
  ]

6:                                                ; preds = %3, %3
  %7 = trunc i64 %1 to i8
  store i8 %7, ptr %0, align 1, !tbaa !15
  br label %25

8:                                                ; preds = %3, %3
  %9 = trunc i64 %1 to i8
  store i8 %9, ptr %0, align 1, !tbaa !15
  %10 = getelementptr inbounds nuw i8, ptr %0, i64 1
  %11 = lshr i64 %1, 8
  %12 = trunc i64 %11 to i8
  store i8 %12, ptr %10, align 1, !tbaa !15
  br label %25

13:                                               ; preds = %3, %3, %3, %3, %3, %3, %3, %3, %3, %3, %3, %3, %3, %3, %3
  %14 = trunc i64 %1 to i8
  store i8 %14, ptr %0, align 1, !tbaa !15
  %15 = getelementptr inbounds nuw i8, ptr %0, i64 1
  %16 = lshr i64 %1, 8
  %17 = trunc i64 %16 to i8
  store i8 %17, ptr %15, align 1, !tbaa !15
  %18 = getelementptr inbounds nuw i8, ptr %0, i64 2
  %19 = lshr i64 %1, 16
  %20 = trunc i64 %19 to i8
  store i8 %20, ptr %18, align 1, !tbaa !15
  %21 = getelementptr inbounds nuw i8, ptr %0, i64 3
  %22 = lshr i64 %1, 24
  %23 = trunc i64 %22 to i8
  store i8 %23, ptr %21, align 1, !tbaa !15
  br label %25

24:                                               ; preds = %3
  unreachable

25:                                               ; preds = %13, %8, %6, %3
  ret void
}